target datalayout = "e-m:e-p270:32:32-p271:32:32-p272:64:64-i64:64-i128:128-f80:128-n8:16:32:64-S128"
target triple = "x86_64-pc-linux-gnu"

%struct.asn1_type_st = type { i32, %union.anon }
%union.anon = type { ptr }
%struct.asn1_oct_int = type { ptr, i32 }

@.str = private unnamed_addr constant [34 x i8] c"../openssl/crypto/asn1/evp_asn1.c\00", align 1
@__func__.ossl_asn1_type_get_octetstring_int = private unnamed_addr constant [35 x i8] c"ossl_asn1_type_get_octetstring_int\00", align 1
@asn1_oct_int_it.local_it = internal constant { i8, [7 x i8], i64, ptr, i64, ptr, i64, ptr } { i8 1, [7 x i8] zeroinitializer, i64 16, ptr @asn1_oct_int_seq_tt, i64 2, ptr null, i64 16, ptr @.str.4 }, align 8

; Function Attrs: nounwind uwtable
define internal i32 @asn1_type_get_int_oct(ptr noundef %0, i32 noundef %1, ptr noundef %2, ptr noundef %3, i32 noundef %4) #0 {
  %6 = alloca ptr, align 8
  %7 = alloca i32, align 4
  %8 = alloca ptr, align 8
  %9 = alloca ptr, align 8
  %10 = alloca i32, align 4
  %11 = alloca i32, align 4
  %12 = alloca i32, align 4
  store ptr %0, ptr %6, align 8, !tbaa !12
  store i32 %1, ptr %7, align 4, !tbaa !10
  store ptr %2, ptr %8, align 8, !tbaa !27
  store ptr %3, ptr %9, align 8, !tbaa !8
  store i32 %4, ptr %10, align 4, !tbaa !10
  call void @llvm.lifetime.start.p0(i64 4, ptr %11) #5
  %13 = load ptr, ptr %6, align 8, !tbaa !12
  %14 = call i32 @ASN1_STRING_length(ptr noundef %13)
  store i32 %14, ptr %11, align 4, !tbaa !10
  call void @llvm.lifetime.start.p0(i64 4, ptr %12) #5
  %15 = load ptr, ptr %8, align 8, !tbaa !27
  %16 = icmp ne ptr %15, null
  br i1 %16, label %17, label %21

17:                                               ; preds = %5
  %18 = load i32, ptr %7, align 4, !tbaa !10
  %19 = sext i32 %18 to i64
  %20 = load ptr, ptr %8, align 8, !tbaa !27
  store i64 %19, ptr %20, align 8, !tbaa !17
  br label %21

21:                                               ; preds = %17, %5
  %22 = load i32, ptr %10, align 4, !tbaa !10
  %23 = load i32, ptr %11, align 4, !tbaa !10
  %24 = icmp sgt i32 %22, %23
  br i1 %24, label %25, label %27

25:                                               ; preds = %21
  %26 = load i32, ptr %11, align 4, !tbaa !10
  store i32 %26, ptr %12, align 4, !tbaa !10
  br label %29

27:                                               ; preds = %21
  %28 = load i32, ptr %10, align 4, !tbaa !10
  store i32 %28, ptr %12, align 4, !tbaa !10
  br label %29

29:                                               ; preds = %27, %25
  %30 = load ptr, ptr %9, align 8, !tbaa !8
  %31 = icmp ne ptr %30, null
  br i1 %31, label %32, label %38

32:                                               ; preds = %29
  %33 = load ptr, ptr %9, align 8, !tbaa !8
  %34 = load ptr, ptr %6, align 8, !tbaa !12
  %35 = call ptr @ASN1_STRING_get0_data(ptr noundef %34)
  %36 = load i32, ptr %12, align 4, !tbaa !10
  %37 = sext i32 %36 to i64
  call void @llvm.memcpy.p0.p0.i64(ptr align 1 %33, ptr align 1 %35, i64 %37, i1 false)
  br label %38

38:                                               ; preds = %32, %29
  %39 = load i32, ptr %11, align 4, !tbaa !10
  call void @llvm.lifetime.end.p0(i64 4, ptr %12) #5
  call void @llvm.lifetime.end.p0(i64 4, ptr %11) #5
  ret i32 %39
}

; Function Attrs: nounwind uwtable
define internal ptr @asn1_oct_int_it() #0 {
  ret ptr @asn1_oct_int_it.local_it
}

; Function Attrs: nounwind uwtable
define i32 @ossl_asn1_type_get_octetstring_int(ptr noundef %0, ptr noundef %1, ptr noundef %2, i32 noundef %3) #0 {
  %5 = alloca ptr, align 8
  %6 = alloca ptr, align 8
  %7 = alloca ptr, align 8
  %8 = alloca i32, align 4
  %9 = alloca ptr, align 8
  %10 = alloca i32, align 4
  store ptr %0, ptr %5, align 8, !tbaa !3
  store ptr %1, ptr %6, align 8, !tbaa !27
  store ptr %2, ptr %7, align 8, !tbaa !8
  store i32 %3, ptr %8, align 4, !tbaa !10
  call void @llvm.lifetime.start.p0(i64 8, ptr %9) #5
  store ptr null, ptr %9, align 8, !tbaa !29
  call void @llvm.lifetime.start.p0(i64 4, ptr %10) #5
  store i32 -1, ptr %10, align 4, !tbaa !10
  %11 = load ptr, ptr %5, align 8, !tbaa !3
  %12 = getelementptr inbounds nuw %struct.asn1_type_st, ptr %11, i32 0, i32 0
  %13 = load i32, ptr %12, align 8, !tbaa !14
  %14 = icmp ne i32 %13, 16
  br i1 %14, label %20, label %15

15:                                               ; preds = %4
  %16 = load ptr, ptr %5, align 8, !tbaa !3
  %17 = getelementptr inbounds nuw %struct.asn1_type_st, ptr %16, i32 0, i32 1
  %18 = load ptr, ptr %17, align 8, !tbaa !16
  %19 = icmp eq ptr %18, null
  br i1 %19, label %20, label %21

20:                                               ; preds = %15, %4
  br label %42

21:                                               ; preds = %15
  %22 = call ptr @asn1_oct_int_it()
  %23 = load ptr, ptr %5, align 8, !tbaa !3
  %24 = call ptr @ASN1_TYPE_unpack_sequence(ptr noundef %22, ptr noundef %23)
  store ptr %24, ptr %9, align 8, !tbaa !29
  %25 = load ptr, ptr %9, align 8, !tbaa !29
  %26 = icmp eq ptr %25, null
  br i1 %26, label %27, label %28

27:                                               ; preds = %21
  br label %42

28:                                               ; preds = %21
  %29 = load ptr, ptr %9, align 8, !tbaa !29
  %30 = getelementptr inbounds nuw %struct.asn1_oct_int, ptr %29, i32 0, i32 0
  %31 = load ptr, ptr %30, align 8, !tbaa !32
  %32 = load ptr, ptr %9, align 8, !tbaa !29
  %33 = getelementptr inbounds nuw %struct.asn1_oct_int, ptr %32, i32 0, i32 1
  %34 = load i32, ptr %33, align 8, !tbaa !30
  %35 = load ptr, ptr %6, align 8, !tbaa !27
  %36 = load ptr, ptr %7, align 8, !tbaa !8
  %37 = load i32, ptr %8, align 4, !tbaa !10
  %38 = call i32 @asn1_type_get_int_oct(ptr noundef %31, i32 noundef %34, ptr noundef %35, ptr noundef %36, i32 noundef %37)
  store i32 %38, ptr %10, align 4, !tbaa !10
  %39 = load i32, ptr %10, align 4, !tbaa !10
  %40 = icmp eq i32 %39, -1
  br i1 %40, label %41, label %43

41:                                               ; preds = %28
  br label %42

42:                                               ; preds = %41, %27, %20
  call void @ERR_new()
  call void @ERR_set_debug(ptr noundef @.str, i32 noundef 183, ptr noundef @__func__.ossl_asn1_type_get_octetstring_int)
  call void (i32, i32, ptr, ...) @ERR_set_error(i32 noundef 13, i32 noundef 109, ptr noundef null)
  br label %43

43:                                               ; preds = %42, %28
  %44 = load ptr, ptr %9, align 8, !tbaa !29
  %45 = call ptr @asn1_oct_int_it()
  call void @ASN1_item_free(ptr noundef %44, ptr noundef %45)
  %46 = load i32, ptr %10, align 4, !tbaa !10
  call void @llvm.lifetime.end.p0(i64 4, ptr %10) #5
  call void @llvm.lifetime.end.p0(i64 8, ptr %9) #5
  ret i32 %46
}