; Function Attrs: nounwind uwtable
define i32 @ossl_asn1_type_get_octetstring_int(ptr noundef %0, ptr noundef writeonly captures(address_is_null) %1, ptr noundef writeonly captures(address_is_null) %2, i32 noundef %3) local_unnamed_addr #0 {
  %5 = load i32, ptr %0, align 8, !tbaa !3
  %.not = icmp eq i32 %5, 16
  br i1 %.not, label %6, label %25

6:                                                ; preds = %4
  %7 = getelementptr inbounds nuw i8, ptr %0, i64 8
  %8 = load ptr, ptr %7, align 8, !tbaa !8
  %9 = icmp eq ptr %8, null
  br i1 %9, label %25, label %10

10:                                               ; preds = %6
  %11 = tail call ptr @ASN1_TYPE_unpack_sequence(ptr noundef nonnull @asn1_oct_int_it.local_it, ptr noundef nonnull %0) #5
  %12 = icmp eq ptr %11, null
  br i1 %12, label %25, label %13

13:                                               ; preds = %10
  %14 = load ptr, ptr %11, align 8, !tbaa !26
  %15 = getelementptr inbounds nuw i8, ptr %11, i64 8
  %16 = load i32, ptr %15, align 8, !tbaa !24
  %17 = tail call i32 @ASN1_STRING_length(ptr noundef %14) #5
  %.not.i = icmp eq ptr %1, null
  br i1 %.not.i, label %20, label %18

18:                                               ; preds = %13
  %19 = sext i32 %16 to i64
  store i64 %19, ptr %1, align 8, !tbaa !23
  br label %20

20:                                               ; preds = %18, %13
  %.not16.i = icmp eq ptr %2, null
  br i1 %.not16.i, label %asn1_type_get_int_oct.exit, label %21

21:                                               ; preds = %20
  %..i = tail call i32 @llvm.smin.i32(i32 %3, i32 %17)
  %22 = tail call ptr @ASN1_STRING_get0_data(ptr noundef %14) #5
  %23 = sext i32 %..i to i64
  tail call void @llvm.memcpy.p0.p0.i64(ptr nonnull align 1 %2, ptr align 1 %22, i64 %23, i1 false)
  br label %asn1_type_get_int_oct.exit

asn1_type_get_int_oct.exit:                       ; preds = %20, %21
  %24 = icmp eq i32 %17, -1
  br i1 %24, label %25, label %26

25:                                               ; preds = %asn1_type_get_int_oct.exit, %10, %4, %6
  %.011 = phi ptr [ null, %4 ], [ null, %6 ], [ null, %10 ], [ %11, %asn1_type_get_int_oct.exit ]
  tail call void @ERR_new() #5
  tail call void @ERR_set_debug(ptr noundef nonnull @.str, i32 noundef 183, ptr noundef nonnull @__func__.ossl_asn1_type_get_octetstring_int) #5
  tail call void (i32, i32, ptr, ...) @ERR_set_error(i32 noundef 13, i32 noundef 109, ptr noundef null) #5
  br label %26

26:                                               ; preds = %25, %asn1_type_get_int_oct.exit
  %.112 = phi ptr [ %.011, %25 ], [ %11, %asn1_type_get_int_oct.exit ]
  %.1 = phi i32 [ -1, %25 ], [ %17, %asn1_type_get_int_oct.exit ]
  tail call void @ASN1_item_free(ptr noundef %.112, ptr noundef nonnull @asn1_oct_int_it.local_it) #5
  ret i32 %.1
}